target datalayout = "e-m:e-p270:32:32-p271:32:32-p272:64:64-i64:64-i128:128-f80:128-n8:16:32:64-S128"
target triple = "x86_64-pc-linux-gnu"

%"class.std::shared_ptr" = type { %"class.std::__shared_ptr" }
%"class.std::__shared_ptr" = type { ptr, %"class.std::__shared_count" }
%"class.std::__shared_count" = type { ptr }
%"class.open_spiel::twenty_forty_eight::TwentyFortyEightState" = type { %"class.open_spiel::State.base", ptr, i32, %"class.std::vector.9", i8, i32, i32, i32 }
%"class.open_spiel::State.base" = type <{ ptr, %"class.std::shared_ptr", i32, i32, %"class.std::vector", i32 }>
%"class.std::vector" = type { %"struct.std::_Vector_base" }
%"struct.std::_Vector_base" = type { %"struct.std::_Vector_base<open_spiel::State::PlayerAction, std::allocator<open_spiel::State::PlayerAction>>::_Vector_impl" }
%"struct.std::_Vector_base<open_spiel::State::PlayerAction, std::allocator<open_spiel::State::PlayerAction>>::_Vector_impl" = type { %"struct.std::_Vector_base<open_spiel::State::PlayerAction, std::allocator<open_spiel::State::PlayerAction>>::_Vector_impl_data" }
%"struct.std::_Vector_base<open_spiel::State::PlayerAction, std::allocator<open_spiel::State::PlayerAction>>::_Vector_impl_data" = type { ptr, ptr, ptr }
%"class.std::vector.9" = type { %"struct.std::_Vector_base.10" }
%"struct.std::_Vector_base.10" = type { %"struct.std::_Vector_base<open_spiel::twenty_forty_eight::Tile, std::allocator<open_spiel::twenty_forty_eight::Tile>>::_Vector_impl" }
%"struct.std::_Vector_base<open_spiel::twenty_forty_eight::Tile, std::allocator<open_spiel::twenty_forty_eight::Tile>>::_Vector_impl" = type { %"struct.std::_Vector_base<open_spiel::twenty_forty_eight::Tile, std::allocator<open_spiel::twenty_forty_eight::Tile>>::_Vector_impl_data" }
%"struct.std::_Vector_base<open_spiel::twenty_forty_eight::Tile, std::allocator<open_spiel::twenty_forty_eight::Tile>>::_Vector_impl_data" = type { ptr, ptr, ptr }
%"struct.open_spiel::twenty_forty_eight::Tile" = type <{ i32, i8, [3 x i8] }>

; Function Attrs: mustprogress nounwind uwtable
define linkonce_odr noundef nonnull align 4 dereferenceable(5) ptr @_ZNKSt6vectorIN10open_spiel18twenty_forty_eight4TileESaIS2_EEixEm(ptr noundef nonnull align 8 dereferenceable(24) %0, i64 noundef %1) #5 comdat align 2 {
  %3 = alloca ptr, align 8
  %4 = alloca i64, align 8
  store ptr %0, ptr %3, align 8
  store i64 %1, ptr %4, align 8
  %5 = load ptr, ptr %3, align 8
  %6 = getelementptr inbounds nuw %"struct.std::_Vector_base.10", ptr %5, i32 0, i32 0
  %7 = getelementptr inbounds nuw %"struct.std::_Vector_base<open_spiel::twenty_forty_eight::Tile, std::allocator<open_spiel::twenty_forty_eight::Tile>>::_Vector_impl_data", ptr %6, i32 0, i32 0
  %8 = load ptr, ptr %7, align 8
  %9 = load i64, ptr %4, align 8
  %10 = getelementptr inbounds %"struct.open_spiel::twenty_forty_eight::Tile", ptr %8, i64 %9
  ret ptr %10
}

; Function Attrs: mustprogress nounwind uwtable
define linkonce_odr i64 @_ZNK10open_spiel18twenty_forty_eight21TwentyFortyEightState7BoardAtEii(ptr noundef nonnull align 8 dereferenceable(120) %0, i32 noundef %1, i32 noundef %2) #5 comdat align 2 {
  %4 = alloca %"struct.open_spiel::twenty_forty_eight::Tile", align 4
  %5 = alloca ptr, align 8
  %6 = alloca i32, align 4
  %7 = alloca i32, align 4
  store ptr %0, ptr %5, align 8
  store i32 %1, ptr %6, align 4
  store i32 %2, ptr %7, align 4
  %8 = load ptr, ptr %5, align 8
  %9 = getelementptr inbounds nuw %"class.open_spiel::twenty_forty_eight::TwentyFortyEightState", ptr %8, i32 0, i32 3
  %10 = load i32, ptr %6, align 4
  %11 = mul nsw i32 %10, 4
  %12 = load i32, ptr %7, align 4
  %13 = add nsw i32 %11, %12
  %14 = sext i32 %13 to i64
  %15 = call noundef nonnull align 4 dereferenceable(5) ptr @_ZNKSt6vectorIN10open_spiel18twenty_forty_eight4TileESaIS2_EEixEm(ptr noundef nonnull align 8 dereferenceable(24) %9, i64 noundef %14) #3
  call void @llvm.memcpy.p0.p0.i64(ptr align 4 %4, ptr align 4 %15, i64 8, i1 false)
  %16 = load i64, ptr %4, align 4
  ret i64 %16
}

; Function Attrs: mustprogress uwtable
define noundef zeroext i1 @_ZNK10open_spiel18twenty_forty_eight21TwentyFortyEightState13CellAvailableEii(ptr noundef nonnull align 8 dereferenceable(120) %0, i32 noundef %1, i32 noundef %2) #4 align 2 {
  %4 = alloca ptr, align 8
  %5 = alloca i32, align 4
  %6 = alloca i32, align 4
  %7 = alloca %"struct.open_spiel::twenty_forty_eight::Tile", align 4
  store ptr %0, ptr %4, align 8
  store i32 %1, ptr %5, align 4
  store i32 %2, ptr %6, align 4
  %8 = load ptr, ptr %4, align 8
  %9 = load i32, ptr %5, align 4
  %10 = load i32, ptr %6, align 4
  %11 = call i64 @_ZNK10open_spiel18twenty_forty_eight21TwentyFortyEightState7BoardAtEii(ptr noundef nonnull align 8 dereferenceable(120) %8, i32 noundef %9, i32 noundef %10)
  %12 = trunc i64 %11 to i40
  store i40 %12, ptr %7, align 4
  %13 = getelementptr inbounds nuw %"struct.open_spiel::twenty_forty_eight::Tile", ptr %7, i32 0, i32 0
  %14 = load i32, ptr %13, align 4
  %15 = icmp eq i32 %14, 0
  ret i1 %15
}