; Function Attrs: mustprogress nofree norecurse nosync nounwind willreturn memory(read, inaccessiblemem: none) uwtable
define noundef zeroext i1 @_ZNK10open_spiel18twenty_forty_eight21TwentyFortyEightState13CellAvailableEii(ptr noundef nonnull readonly align 8 captures(none) dereferenceable(120) %0, i32 noundef %1, i32 noundef %2) local_unnamed_addr #7 align 2 {
  %4 = getelementptr inbounds nuw i8, ptr %0, i64 80
  %5 = shl nsw i32 %1, 2
  %6 = add nsw i32 %5, %2
  %7 = sext i32 %6 to i64
  %8 = load ptr, ptr %4, align 8
  %9 = getelementptr inbounds %"struct.open_spiel::twenty_forty_eight::Tile", ptr %8, i64 %7
  %.sroa.0.0.copyload.i = load i64, ptr %9, align 4
  %10 = and i64 %.sroa.0.0.copyload.i, 4294967295
  %11 = icmp eq i64 %10, 0
  ret i1 %11
}